; Function Attrs: mustprogress uwtable
define hidden noundef nonnull ptr @_ZN6Assimp7Blender11createMVertEm(i64 noundef %cnt) #0 personality ptr @__gxx_personality_v0 {
entry:
  %0 = tail call { i64, i1 } @llvm.umul.with.overflow.i64(i64 %cnt, i64 56)
  %1 = extractvalue { i64, i1 } %0, 1
  %2 = extractvalue { i64, i1 } %0, 0
  %3 = tail call { i64, i1 } @llvm.uadd.with.overflow.i64(i64 %2, i64 8)
  %4 = extractvalue { i64, i1 } %3, 1
  %5 = or i1 %1, %4
  %6 = extractvalue { i64, i1 } %3, 0
  %7 = select i1 %5, i64 -1, i64 %6
  %call = tail call noalias noundef nonnull ptr @_Znam(i64 noundef %7) #17
  store i64 %cnt, ptr %call, align 16
  %.ptr = getelementptr inbounds i8, ptr %call, i64 8
  %isempty = icmp eq i64 %cnt, 0
  br i1 %isempty, label %arrayctor.cont, label %new.ctorloop

new.ctorloop:                                     ; preds = %entry
  %arrayctor.end = getelementptr inbounds %"struct.Assimp::Blender::MVert", ptr %.ptr, i64 %cnt
  br label %invoke.cont

invoke.cont:                                      ; preds = %new.ctorloop, %invoke.cont
  %arrayctor.cur.idx = phi i64 [ 8, %new.ctorloop ], [ %arrayctor.cur.add, %invoke.cont ]
  %arrayctor.cur.ptr.ptr = getelementptr inbounds i8, ptr %call, i64 %arrayctor.cur.idx
  %dna_type.i.i = getelementptr inbounds i8, ptr %arrayctor.cur.ptr.ptr, i64 8
  store ptr null, ptr %dna_type.i.i, align 8
  store ptr getelementptr inbounds ({ [4 x ptr] }, ptr @_ZTVN6Assimp7Blender5MVertE, i64 0, i32 0, i64 2), ptr %arrayctor.cur.ptr.ptr, align 8
  %flag.i = getelementptr inbounds i8, ptr %arrayctor.cur.ptr.ptr, i64 40
  store i8 0, ptr %flag.i, align 8
  %mat_nr.i = getelementptr inbounds i8, ptr %arrayctor.cur.ptr.ptr, i64 44
  store i32 0, ptr %mat_nr.i, align 4
  %bweight.i = getelementptr inbounds i8, ptr %arrayctor.cur.ptr.ptr, i64 48
  store i32 0, ptr %bweight.i, align 8
  %arrayctor.cur.add = add nuw nsw i64 %arrayctor.cur.idx, 56
  %arrayctor.next.ptr = getelementptr inbounds i8, ptr %call, i64 %arrayctor.cur.add
  %arrayctor.done = icmp eq ptr %arrayctor.next.ptr, %arrayctor.end
  br i1 %arrayctor.done, label %arrayctor.cont, label %invoke.cont

arrayctor.cont:                                   ; preds = %invoke.cont, %entry
  ret ptr %.ptr
}